target datalayout = "e-m:e-p270:32:32-p271:32:32-p272:64:64-i64:64-i128:128-f80:128-n8:16:32:64-S128"
target triple = "x86_64-pc-linux-gnu"

%union.ListCell = type { ptr }
%struct.List = type { i32, i32, i32, ptr, [0 x %union.ListCell] }
%struct.TargetEntry = type { %struct.Expr, ptr, i16, ptr, i32, i32, i16, i8 }
%struct.Expr = type { i32 }
%struct.Var = type { %struct.Expr, i32, i16, i32, i32, i32, ptr, i32, i32, i32, i16, i32 }

; Function Attrs: inlinehint nounwind uwtable
define internal i32 @list_length(ptr noundef %0) #2 {
  %2 = alloca ptr, align 8
  store ptr %0, ptr %2, align 8
  %3 = load ptr, ptr %2, align 8
  %4 = icmp ne ptr %3, null
  br i1 %4, label %5, label %9

5:                                                ; preds = %1
  %6 = load ptr, ptr %2, align 8
  %7 = getelementptr inbounds nuw %struct.List, ptr %6, i32 0, i32 1
  %8 = load i32, ptr %7, align 4
  br label %10

9:                                                ; preds = %1
  br label %10

10:                                               ; preds = %9, %5
  %11 = phi i32 [ %8, %5 ], [ 0, %9 ]
  ret i32 %11
}

; Function Attrs: nounwind uwtable
define internal zeroext i1 @coerce_fn_result_column(ptr noundef %0, i32 noundef %1, i32 noundef %2, i1 noundef zeroext %3, ptr noundef %4, ptr noundef %5) #0 {
  %7 = alloca i1, align 1
  %8 = alloca ptr, align 8
  %9 = alloca i32, align 4
  %10 = alloca i32, align 4
  %11 = alloca i8, align 1
  %12 = alloca ptr, align 8
  %13 = alloca ptr, align 8
  %14 = alloca ptr, align 8
  %15 = alloca ptr, align 8
  %16 = alloca ptr, align 8
  %17 = alloca i32, align 4
  %18 = alloca ptr, align 8
  store ptr %0, ptr %8, align 8
  store i32 %1, ptr %9, align 4
  store i32 %2, ptr %10, align 4
  %19 = zext i1 %3 to i8
  store i8 %19, ptr %11, align 1
  store ptr %4, ptr %12, align 8
  store ptr %5, ptr %13, align 8
  call void @llvm.lifetime.start.p0(i64 8, ptr %14) #8
  call void @llvm.lifetime.start.p0(i64 8, ptr %15) #8
  call void @llvm.lifetime.start.p0(i64 8, ptr %16) #8
  %20 = load i8, ptr %11, align 1, !range !6, !noundef !7
  %21 = trunc i8 %20 to i1
  br i1 %21, label %22, label %48

22:                                               ; preds = %6
  %23 = load ptr, ptr %8, align 8
  %24 = getelementptr inbounds nuw %struct.TargetEntry, ptr %23, i32 0, i32 4
  %25 = load i32, ptr %24, align 8
  %26 = icmp eq i32 %25, 0
  br i1 %26, label %27, label %48

27:                                               ; preds = %22
  %28 = load ptr, ptr %8, align 8
  %29 = getelementptr inbounds nuw %struct.TargetEntry, ptr %28, i32 0, i32 1
  %30 = load ptr, ptr %29, align 8
  %31 = load ptr, ptr %8, align 8
  %32 = getelementptr inbounds nuw %struct.TargetEntry, ptr %31, i32 0, i32 1
  %33 = load ptr, ptr %32, align 8
  %34 = call i32 @exprType(ptr noundef %33)
  %35 = load i32, ptr %9, align 4
  %36 = load i32, ptr %10, align 4
  %37 = call ptr @coerce_to_target_type(ptr noundef null, ptr noundef %30, i32 noundef %34, i32 noundef %35, i32 noundef %36, i32 noundef 1, i32 noundef 2, i32 noundef -1)
  store ptr %37, ptr %16, align 8
  %38 = load ptr, ptr %16, align 8
  %39 = icmp eq ptr %38, null
  br i1 %39, label %40, label %41

40:                                               ; preds = %27
  store i1 false, ptr %7, align 1
  store i32 1, ptr %17, align 4
  br label %89

41:                                               ; preds = %27
  %42 = load ptr, ptr %16, align 8
  call void @assign_expr_collations(ptr noundef null, ptr noundef %42)
  %43 = load ptr, ptr %16, align 8
  %44 = load ptr, ptr %8, align 8
  %45 = getelementptr inbounds nuw %struct.TargetEntry, ptr %44, i32 0, i32 1
  store ptr %43, ptr %45, align 8
  %46 = load ptr, ptr %8, align 8
  %47 = call ptr @makeVarFromTargetEntry(i32 noundef 1, ptr noundef %46)
  store ptr %47, ptr %15, align 8
  br label %73

48:                                               ; preds = %22, %6
  call void @llvm.lifetime.start.p0(i64 8, ptr %18) #8
  %49 = load ptr, ptr %8, align 8
  %50 = call ptr @makeVarFromTargetEntry(i32 noundef 1, ptr noundef %49)
  store ptr %50, ptr %18, align 8
  %51 = load ptr, ptr %18, align 8
  %52 = load ptr, ptr %18, align 8
  %53 = getelementptr inbounds nuw %struct.Var, ptr %52, i32 0, i32 3
  %54 = load i32, ptr %53, align 4
  %55 = load i32, ptr %9, align 4
  %56 = load i32, ptr %10, align 4
  %57 = call ptr @coerce_to_target_type(ptr noundef null, ptr noundef %51, i32 noundef %54, i32 noundef %55, i32 noundef %56, i32 noundef 1, i32 noundef 2, i32 noundef -1)
  store ptr %57, ptr %16, align 8
  %58 = load ptr, ptr %16, align 8
  %59 = icmp eq ptr %58, null
  br i1 %59, label %60, label %61

60:                                               ; preds = %48
  store i1 false, ptr %7, align 1
  store i32 1, ptr %17, align 4
  br label %70

61:                                               ; preds = %48
  %62 = load ptr, ptr %16, align 8
  call void @assign_expr_collations(ptr noundef null, ptr noundef %62)
  %63 = load ptr, ptr %16, align 8
  %64 = load ptr, ptr %18, align 8
  %65 = icmp ne ptr %63, %64
  br i1 %65, label %66, label %68

66:                                               ; preds = %61
  %67 = load ptr, ptr %13, align 8
  store i8 1, ptr %67, align 1
  br label %68

68:                                               ; preds = %66, %61
  %69 = load ptr, ptr %16, align 8
  store ptr %69, ptr %15, align 8
  store i32 0, ptr %17, align 4
  br label %70

70:                                               ; preds = %68, %60
  call void @llvm.lifetime.end.p0(i64 8, ptr %18) #8
  %71 = load i32, ptr %17, align 4
  switch i32 %71, label %89 [
    i32 0, label %72
  ]

72:                                               ; preds = %70
  br label %73

73:                                               ; preds = %72, %41
  %74 = load ptr, ptr %15, align 8
  %75 = load ptr, ptr %12, align 8
  %76 = load ptr, ptr %75, align 8
  %77 = call i32 @list_length(ptr noundef %76)
  %78 = add i32 %77, 1
  %79 = trunc i32 %78 to i16
  %80 = load ptr, ptr %8, align 8
  %81 = getelementptr inbounds nuw %struct.TargetEntry, ptr %80, i32 0, i32 3
  %82 = load ptr, ptr %81, align 8
  %83 = call ptr @makeTargetEntry(ptr noundef %74, i16 noundef signext %79, ptr noundef %82, i1 noundef zeroext false)
  store ptr %83, ptr %14, align 8
  %84 = load ptr, ptr %12, align 8
  %85 = load ptr, ptr %84, align 8
  %86 = load ptr, ptr %14, align 8
  %87 = call ptr @lappend(ptr noundef %85, ptr noundef %86)
  %88 = load ptr, ptr %12, align 8
  store ptr %87, ptr %88, align 8
  store i1 true, ptr %7, align 1
  store i32 1, ptr %17, align 4
  br label %89

89:                                               ; preds = %73, %70, %40
  call void @llvm.lifetime.end.p0(i64 8, ptr %16) #8
  call void @llvm.lifetime.end.p0(i64 8, ptr %15) #8
  call void @llvm.lifetime.end.p0(i64 8, ptr %14) #8
  %90 = load i1, ptr %7, align 1
  ret i1 %90
}