; Function Attrs: nounwind uwtable
define internal fastcc noundef zeroext i1 @coerce_fn_result_column(ptr noundef %0, i32 noundef %1, i32 noundef %2, i1 noundef zeroext %3, ptr noundef nonnull captures(none) %4, ptr noundef nonnull writeonly captures(none) %5) unnamed_addr #0 {
  br i1 %3, label %7, label %19

7:                                                ; preds = %6
  %8 = getelementptr inbounds nuw i8, ptr %0, i64 32
  %9 = load i32, ptr %8, align 8
  %10 = icmp eq i32 %9, 0
  br i1 %10, label %11, label %19

11:                                               ; preds = %7
  %12 = getelementptr inbounds nuw i8, ptr %0, i64 8
  %13 = load ptr, ptr %12, align 8
  %14 = tail call i32 @exprType(ptr noundef %13) #11
  %15 = tail call ptr @coerce_to_target_type(ptr noundef null, ptr noundef %13, i32 noundef %14, i32 noundef %1, i32 noundef %2, i32 noundef 1, i32 noundef 2, i32 noundef -1) #11
  %16 = icmp eq ptr %15, null
  br i1 %16, label %.critedge, label %17

17:                                               ; preds = %11
  tail call void @assign_expr_collations(ptr noundef null, ptr noundef nonnull %15) #11
  store ptr %15, ptr %12, align 8
  %18 = tail call ptr @makeVarFromTargetEntry(i32 noundef 1, ptr noundef nonnull %0) #11
  br label %26

19:                                               ; preds = %7, %6
  %20 = tail call ptr @makeVarFromTargetEntry(i32 noundef 1, ptr noundef %0) #11
  %21 = getelementptr inbounds nuw i8, ptr %20, i64 12
  %22 = load i32, ptr %21, align 4
  %23 = tail call ptr @coerce_to_target_type(ptr noundef null, ptr noundef %20, i32 noundef %22, i32 noundef %1, i32 noundef %2, i32 noundef 1, i32 noundef 2, i32 noundef -1) #11
  %.not34 = icmp eq ptr %23, null
  br i1 %.not34, label %.critedge, label %24

24:                                               ; preds = %19
  tail call void @assign_expr_collations(ptr noundef null, ptr noundef nonnull %23) #11
  %.not = icmp eq ptr %23, %20
  br i1 %.not, label %26, label %25

25:                                               ; preds = %24
  store i8 1, ptr %5, align 1
  br label %26

26:                                               ; preds = %25, %24, %17
  %.030 = phi ptr [ %18, %17 ], [ %23, %24 ], [ %23, %25 ]
  %27 = load ptr, ptr %4, align 8
  %.not.i = icmp eq ptr %27, null
  br i1 %.not.i, label %list_length.exit, label %28

28:                                               ; preds = %26
  %29 = getelementptr inbounds nuw i8, ptr %27, i64 4
  %30 = load i32, ptr %29, align 4
  %31 = trunc i32 %30 to i16
  %32 = add i16 %31, 1
  br label %list_length.exit

list_length.exit:                                 ; preds = %26, %28
  %33 = phi i16 [ %32, %28 ], [ 1, %26 ]
  %34 = getelementptr inbounds nuw i8, ptr %0, i64 24
  %35 = load ptr, ptr %34, align 8
  %36 = tail call ptr @makeTargetEntry(ptr noundef %.030, i16 noundef signext %33, ptr noundef %35, i1 noundef zeroext false) #11
  %37 = load ptr, ptr %4, align 8
  %38 = tail call ptr @lappend(ptr noundef %37, ptr noundef %36) #11
  store ptr %38, ptr %4, align 8
  br label %.critedge

.critedge:                                        ; preds = %19, %11, %list_length.exit
  %.0 = phi i1 [ true, %list_length.exit ], [ false, %11 ], [ false, %19 ]
  ret i1 %.0
}